; Function Attrs: nounwind uwtable
define ptr @l_Lake_Toml_decodeDecNum___boxed(ptr noundef %0) local_unnamed_addr #0 {
  %2 = getelementptr i8, ptr %0, i64 8
  %.val.i = load i64, ptr %2, align 8, !tbaa !12
  %3 = shl i64 %.val.i, 1
  %4 = add i64 %3, -1
  %5 = inttoptr i64 %4 to ptr
  %6 = tail call ptr @l_String_foldlAux___at_Lake_Toml_decodeDecNum___spec__1(ptr noundef %0, ptr noundef nonnull %5, ptr noundef nonnull inttoptr (i64 1 to ptr), ptr noundef nonnull inttoptr (i64 1 to ptr))
  %7 = ptrtoint ptr %0 to i64
  %8 = and i64 %7, 1
  %.not = icmp eq i64 %8, 0
  br i1 %.not, label %9, label %lean_dec.exit

9:                                                ; preds = %1
  %10 = load i32, ptr %0, align 4, !tbaa !8
  %11 = icmp sgt i32 %10, 1
  br i1 %11, label %12, label %14, !prof !11

12:                                               ; preds = %9
  %13 = add nsw i32 %10, -1
  store i32 %13, ptr %0, align 4, !tbaa !8
  br label %lean_dec.exit

14:                                               ; preds = %9
  %.not.i = icmp eq i32 %10, 0
  br i1 %.not.i, label %lean_dec.exit, label %15

15:                                               ; preds = %14
  tail call void @lean_dec_ref_cold(ptr noundef nonnull %0) #7
  br label %lean_dec.exit

lean_dec.exit:                                    ; preds = %15, %14, %12, %1
  ret ptr %6
}